target datalayout = "e-m:e-p270:32:32-p271:32:32-p272:64:64-i64:64-i128:128-f80:128-n8:16:32:64-S128"
target triple = "x86_64-pc-linux-gnu"

%"struct.faiss::IndexAdditiveQuantizerFastScan" = type { %"struct.faiss::IndexFastScan", ptr, i8, i32, i64 }
%"struct.faiss::IndexFastScan" = type { %"struct.faiss::Index.base", i32, i32, i32, i32, i64, i64, i64, i64, i64, i64, %"struct.faiss::AlignedTable", ptr }
%"struct.faiss::Index.base" = type <{ ptr, i32, [4 x i8], i64, i8, i8, [2 x i8], i32, float }>
%"struct.faiss::AlignedTable" = type { %"struct.faiss::AlignedTableTightAlloc", i64 }
%"struct.faiss::AlignedTableTightAlloc" = type { ptr, i64 }

; Function Attrs: mustprogress uwtable
define void @_ZNK5faiss30IndexAdditiveQuantizerFastScan13compute_codesEPhlPKf(ptr noundef nonnull align 8 dereferenceable(160) %0, ptr noundef %1, i64 noundef %2, ptr noundef %3) unnamed_addr #1 align 2 {
  %5 = alloca ptr, align 8
  %6 = alloca ptr, align 8
  %7 = alloca i64, align 8
  %8 = alloca ptr, align 8
  store ptr %0, ptr %5, align 8, !tbaa !4
  store ptr %1, ptr %6, align 8, !tbaa !69
  store i64 %2, ptr %7, align 8, !tbaa !9
  store ptr %3, ptr %8, align 8, !tbaa !11
  %9 = load ptr, ptr %5, align 8
  %10 = getelementptr inbounds nuw %"struct.faiss::IndexAdditiveQuantizerFastScan", ptr %9, i32 0, i32 1
  %11 = load ptr, ptr %10, align 8, !tbaa !31
  %12 = load ptr, ptr %8, align 8, !tbaa !11
  %13 = load ptr, ptr %6, align 8, !tbaa !69
  %14 = load i64, ptr %7, align 8, !tbaa !9
  %15 = load ptr, ptr %11, align 8, !tbaa !57
  %16 = getelementptr inbounds ptr, ptr %15, i64 1
  %17 = load ptr, ptr %16, align 8
  call void %17(ptr noundef nonnull align 8 dereferenceable(356) %11, ptr noundef %12, ptr noundef %13, i64 noundef %14)
  ret void
}