; Function Attrs: mustprogress uwtable
define void @_ZNK5faiss30IndexAdditiveQuantizerFastScan13compute_codesEPhlPKf(ptr noundef nonnull readonly align 8 captures(none) dereferenceable(160) %0, ptr noundef %1, i64 noundef %2, ptr noundef %3) unnamed_addr #1 align 2 {
  %5 = getelementptr inbounds nuw i8, ptr %0, i64 136
  %6 = load ptr, ptr %5, align 8, !tbaa !26
  %7 = load ptr, ptr %6, align 8, !tbaa !53
  %8 = getelementptr inbounds nuw i8, ptr %7, i64 8
  %9 = load ptr, ptr %8, align 8
  tail call void %9(ptr noundef nonnull align 8 dereferenceable(356) %6, ptr noundef %3, ptr noundef %1, i64 noundef %2)
  ret void
}